; Function Attrs: mustprogress uwtable
define noundef i64 @_ZN9grpc_core17MessageSizeParser11ParserIndexEv() local_unnamed_addr #4 align 2 personality ptr @__gxx_personality_v0 {
entry:
  %0 = load atomic i64, ptr @_ZN9grpc_core17CoreConfiguration7config_E acquire, align 8
  %atomic-temp.i.0.i.i = inttoptr i64 %0 to ptr
  %cmp.not.i = icmp eq i64 %0, 0
  br i1 %cmp.not.i, label %if.end.i, label %_ZN9grpc_core17CoreConfiguration3GetEv.exit

if.end.i:                                         ; preds = %entry
  %call1.i = tail call noundef nonnull align 8 dereferenceable(776) ptr @_ZN9grpc_core17CoreConfiguration19BuildNewAndMaybeSetEv()
  br label %_ZN9grpc_core17CoreConfiguration3GetEv.exit

_ZN9grpc_core17CoreConfiguration3GetEv.exit:      ; preds = %entry, %if.end.i
  %retval.0.i = phi ptr [ %call1.i, %if.end.i ], [ %atomic-temp.i.0.i.i, %entry ]
  %service_config_parser_.i = getelementptr inbounds i8, ptr %retval.0.i, i64 552
  %call3 = tail call noundef i64 @_ZNK9grpc_core19ServiceConfigParser14GetParserIndexESt17basic_string_viewIcSt11char_traitsIcEE(ptr noundef nonnull align 8 dereferenceable(24) %service_config_parser_.i, i64 12, ptr nonnull @.str.5)
  ret i64 %call3
}